; ModuleID = '4/371.c'
source_filename = "4/371.c"
target datalayout = "e-m:e-p270:32:32-p271:32:32-p272:64:64-i64:64-f80:128-n8:16:32:64-S128"
target triple = "x86_64-pc-linux-gnu"

@.str = private unnamed_addr constant [5 x i8] c"%d%d\00", align 1
@.str.1 = private unnamed_addr constant [3 x i8] c"%d\00", align 1
@.str.2 = private unnamed_addr constant [4 x i8] c"%d\0A\00", align 1

; Function Attrs: noinline nounwind uwtable
define dso_local i32 @main() #0 {
  %1 = alloca i32, align 4
  %2 = alloca i32, align 4
  %3 = alloca i32, align 4
  %4 = alloca i32, align 4
  %5 = alloca i32, align 4
  %6 = alloca i32, align 4
  %7 = alloca [100 x [100 x i32]], align 16
  %8 = alloca i32, align 4
  %9 = alloca i32, align 4
  %10 = alloca i32, align 4
  %11 = alloca i32, align 4
  store i32 0, i32* %1, align 4
  %12 = call i32 (i8*, ...) @__isoc99_scanf(i8* getelementptr inbounds ([5 x i8], [5 x i8]* @.str, i64 0, i64 0), i32* %2, i32* %3)
  %13 = load i32, i32* %2, align 4
  %14 = load i32, i32* %3, align 4
  %15 = add nsw i32 %13, %14
  %16 = sub nsw i32 %15, 2
  store i32 %16, i32* %4, align 4
  store i32 0, i32* %5, align 4
  br label %17

17:                                               ; preds = %38, %0
  %18 = load i32, i32* %5, align 4
  %19 = load i32, i32* %2, align 4
  %20 = icmp slt i32 %18, %19
  br i1 %20, label %21, label %41

21:                                               ; preds = %17
  store i32 0, i32* %6, align 4
  br label %22

22:                                               ; preds = %34, %21
  %23 = load i32, i32* %6, align 4
  %24 = load i32, i32* %3, align 4
  %25 = icmp slt i32 %23, %24
  br i1 %25, label %26, label %37

26:                                               ; preds = %22
  %27 = load i32, i32* %5, align 4
  %28 = sext i32 %27 to i64
  %29 = getelementptr inbounds [100 x [100 x i32]], [100 x [100 x i32]]* %7, i64 0, i64 %28
  %30 = load i32, i32* %6, align 4
  %31 = sext i32 %30 to i64
  %32 = getelementptr inbounds [100 x i32], [100 x i32]* %29, i64 0, i64 %31
  %33 = call i32 (i8*, ...) @__isoc99_scanf(i8* getelementptr inbounds ([3 x i8], [3 x i8]* @.str.1, i64 0, i64 0), i32* %32)
  br label %34

34:                                               ; preds = %26
  %35 = load i32, i32* %6, align 4
  %36 = add nsw i32 %35, 1
  store i32 %36, i32* %6, align 4
  br label %22

37:                                               ; preds = %22
  br label %38

38:                                               ; preds = %37
  %39 = load i32, i32* %5, align 4
  %40 = add nsw i32 %39, 1
  store i32 %40, i32* %5, align 4
  br label %17

41:                                               ; preds = %17
  store i32 0, i32* %8, align 4
  br label %42

42:                                               ; preds = %122, %41
  %43 = load i32, i32* %8, align 4
  %44 = load i32, i32* %4, align 4
  %45 = icmp sle i32 %43, %44
  br i1 %45, label %46, label %125

46:                                               ; preds = %42
  %47 = load i32, i32* %2, align 4
  %48 = load i32, i32* %3, align 4
  %49 = icmp sge i32 %47, %48
  br i1 %49, label %50, label %77

50:                                               ; preds = %46
  %51 = load i32, i32* %8, align 4
  %52 = load i32, i32* %3, align 4
  %53 = sub nsw i32 %52, 1
  %54 = icmp sle i32 %51, %53
  br i1 %54, label %55, label %57

55:                                               ; preds = %50
  store i32 0, i32* %11, align 4
  %56 = load i32, i32* %8, align 4
  store i32 %56, i32* %10, align 4
  br label %76

57:                                               ; preds = %50
  %58 = load i32, i32* %8, align 4
  %59 = load i32, i32* %2, align 4
  %60 = sub nsw i32 %59, 1
  %61 = icmp sle i32 %58, %60
  br i1 %61, label %62, label %68

62:                                               ; preds = %57
  %63 = load i32, i32* %8, align 4
  %64 = load i32, i32* %3, align 4
  %65 = sub nsw i32 %63, %64
  %66 = add nsw i32 %65, 1
  store i32 %66, i32* %11, align 4
  %67 = load i32, i32* %8, align 4
  store i32 %67, i32* %10, align 4
  br label %75

68:                                               ; preds = %57
  %69 = load i32, i32* %8, align 4
  %70 = load i32, i32* %3, align 4
  %71 = sub nsw i32 %69, %70
  %72 = add nsw i32 %71, 1
  store i32 %72, i32* %11, align 4
  %73 = load i32, i32* %2, align 4
  %74 = sub nsw i32 %73, 1
  store i32 %74, i32* %10, align 4
  br label %75

75:                                               ; preds = %68, %62
  br label %76

76:                                               ; preds = %75, %55
  br label %101

77:                                               ; preds = %46
  %78 = load i32, i32* %8, align 4
  %79 = load i32, i32* %2, align 4
  %80 = sub nsw i32 %79, 1
  %81 = icmp sle i32 %78, %80
  br i1 %81, label %82, label %84

82:                                               ; preds = %77
  store i32 0, i32* %11, align 4
  %83 = load i32, i32* %8, align 4
  store i32 %83, i32* %10, align 4
  br label %100

84:                                               ; preds = %77
  %85 = load i32, i32* %8, align 4
  %86 = load i32, i32* %3, align 4
  %87 = sub nsw i32 %86, 1
  %88 = icmp sle i32 %85, %87
  br i1 %88, label %89, label %92

89:                                               ; preds = %84
  store i32 0, i32* %11, align 4
  %90 = load i32, i32* %2, align 4
  %91 = sub nsw i32 %90, 1
  store i32 %91, i32* %10, align 4
  br label %99

92:                                               ; preds = %84
  %93 = load i32, i32* %8, align 4
  %94 = load i32, i32* %3, align 4
  %95 = sub nsw i32 %93, %94
  %96 = add nsw i32 %95, 1
  store i32 %96, i32* %11, align 4
  %97 = load i32, i32* %2, align 4
  %98 = sub nsw i32 %97, 1
  store i32 %98, i32* %10, align 4
  br label %99

99:                                               ; preds = %92, %89
  br label %100

100:                                              ; preds = %99, %82
  br label %101

101:                                              ; preds = %100, %76
  %102 = load i32, i32* %11, align 4
  store i32 %102, i32* %9, align 4
  br label %103

103:                                              ; preds = %118, %101
  %104 = load i32, i32* %9, align 4
  %105 = load i32, i32* %10, align 4
  %106 = icmp sle i32 %104, %105
  br i1 %106, label %107, label %121

107:                                              ; preds = %103
  %108 = load i32, i32* %9, align 4
  %109 = sext i32 %108 to i64
  %110 = getelementptr inbounds [100 x [100 x i32]], [100 x [100 x i32]]* %7, i64 0, i64 %109
  %111 = load i32, i32* %8, align 4
  %112 = load i32, i32* %9, align 4
  %113 = sub nsw i32 %111, %112
  %114 = sext i32 %113 to i64
  %115 = getelementptr inbounds [100 x i32], [100 x i32]* %110, i64 0, i64 %114
  %116 = load i32, i32* %115, align 4
  %117 = call i32 (i8*, ...) @printf(i8* getelementptr inbounds ([4 x i8], [4 x i8]* @.str.2, i64 0, i64 0), i32 %116)
  br label %118

118:                                              ; preds = %107
  %119 = load i32, i32* %9, align 4
  %120 = add nsw i32 %119, 1
  store i32 %120, i32* %9, align 4
  br label %103

121:                                              ; preds = %103
  br label %122

122:                                              ; preds = %121
  %123 = load i32, i32* %8, align 4
  %124 = add nsw i32 %123, 1
  store i32 %124, i32* %8, align 4
  br label %42

125:                                              ; preds = %42
  ret i32 0
}

declare dso_local i32 @__isoc99_scanf(i8*, ...) #1

declare dso_local i32 @printf(i8*, ...) #1


!llvm.module.flags = !{!0}
!llvm.ident = !{!1}

!0 = !{i32 1, !"wchar_size", i32 4}
!1 = !{!"clang version 10.0.0-4ubuntu1 "}
